---
triple:          'arm64-apple-darwin'
binary-path:     '/Users/cachij/Documents/Repos/just-codes/Algorithm Solutions/CFC.exe'
relocations:
  - { offset: 0x3F, size: 0x8, addend: 0x0, symName: _str, symObjAddr: 0x2227C, symBinAddr: 0x100008000, symSize: 0x0 }
  - { offset: 0x71, size: 0x8, addend: 0x0, symName: _diff, symObjAddr: 0x52FC0, symBinAddr: 0x100038D44, symSize: 0x0 }
  - { offset: 0x36AA, size: 0x8, addend: 0x0, symName: __ZNSt3__111__introsortINS_17_ClassicAlgPolicyERNS_6__lessIvvEEPNS_4pairIiiEELb0EEEvT1_S8_T0_NS_15iterator_traitsIS8_E15difference_typeEb, symObjAddr: 0xC54, symBinAddr: 0x100001510, symSize: 0x434 }
  - { offset: 0x3801, size: 0x8, addend: 0x0, symName: __ZNSt3__126__insertion_sort_unguardedB8ne180100INS_17_ClassicAlgPolicyERNS_6__lessIvvEEPNS_4pairIiiEEEEvT1_S8_T0_, symObjAddr: 0x1340, symBinAddr: 0x100001BFC, symSize: 0x120 }
  - { offset: 0x38F1, size: 0x8, addend: 0x0, symName: __ZNSt3__111__sift_downB8ne180100INS_17_ClassicAlgPolicyERNS_6__lessIvvEEPNS_4pairIiiEEEEvT1_OT0_NS_15iterator_traitsIS8_E15difference_typeES8_, symObjAddr: 0x2600, symBinAddr: 0x100002EBC, symSize: 0x20C }
  - { offset: 0x399E, size: 0x8, addend: 0x0, symName: __ZNSt3__117__floyd_sift_downB8ne180100INS_17_ClassicAlgPolicyERNS_6__lessIvvEEPNS_4pairIiiEEEET1_S8_OT0_NS_15iterator_traitsIS8_E15difference_typeE, symObjAddr: 0x29A8, symBinAddr: 0x100003264, symSize: 0x100 }
  - { offset: 0x3A36, size: 0x8, addend: 0x0, symName: __ZNSt3__131__partition_with_equals_on_leftB8ne180100INS_17_ClassicAlgPolicyEPNS_4pairIiiEERNS_6__lessIvvEEEET0_S8_S8_T1_, symObjAddr: 0x166C, symBinAddr: 0x100001F28, symSize: 0x20C }
  - { offset: 0x3AF1, size: 0x8, addend: 0x0, symName: __ZNSt3__118__bitset_partitionB8ne180100INS_17_ClassicAlgPolicyEPNS_4pairIiiEERNS_6__lessIvvEEEENS2_IT0_bEES8_S8_T1_, symObjAddr: 0x1878, symBinAddr: 0x100002134, symSize: 0x32C }
  - { offset: 0x3BEC, size: 0x8, addend: 0x0, symName: __ZNSt3__124__swap_bitmap_pos_withinB8ne180100INS_17_ClassicAlgPolicyEPNS_4pairIiiEEEEvRT0_S6_RyS7_, symObjAddr: 0x30F8, symBinAddr: 0x1000039B4, symSize: 0x1E0 }
  - { offset: 0x3CB9, size: 0x8, addend: 0x0, symName: __ZNSt3__132__partition_with_equals_on_rightB8ne180100INS_17_ClassicAlgPolicyEPNS_4pairIiiEERNS_6__lessIvvEEEENS2_IT0_bEES8_S8_T1_, symObjAddr: 0x1BA4, symBinAddr: 0x100002460, symSize: 0x224 }
  - { offset: 0x3D83, size: 0x8, addend: 0x0, symName: __ZNSt3__127__insertion_sort_incompleteB8ne180100INS_17_ClassicAlgPolicyERNS_6__lessIvvEEPNS_4pairIiiEEEEbT1_S8_T0_, symObjAddr: 0x1DC8, symBinAddr: 0x100002684, symSize: 0x304 }
  - { offset: 0x4173, size: 0x8, addend: 0x0, symName: __ZNSt3__1rsB8ne180100IcNS_11char_traitsIcEEEERNS_13basic_istreamIT_T0_EES7_PS4_, symObjAddr: 0x244, symBinAddr: 0x100000B00, symSize: 0x74 }
  - { offset: 0x41D1, size: 0x8, addend: 0x0, symName: __ZNSt3__14sortB8ne180100IPNS_4pairIiiEEEEvT_S4_, symObjAddr: 0x324, symBinAddr: 0x100000BE0, symSize: 0x2C }
  - { offset: 0x48C4, size: 0x8, addend: 0x0, symName: __ZNSt3__14endlB8ne180100IcNS_11char_traitsIcEEEERNS_13basic_ostreamIT_T0_EES7_, symObjAddr: 0x37C, symBinAddr: 0x100000C38, symSize: 0x58 }
  - { offset: 0x4B05, size: 0x8, addend: 0x0, symName: __ZNSt3__116__input_c_stringB8ne180100IcNS_11char_traitsIcEEEERNS_13basic_istreamIT_T0_EES7_PS4_m, symObjAddr: 0x434, symBinAddr: 0x100000CF0, symSize: 0x2C4 }
  - { offset: 0x5172, size: 0x8, addend: 0x0, symName: __ZNSt3__19use_facetB8ne180100INS_5ctypeIcEEEERKT_RKNS_6localeE, symObjAddr: 0x71C, symBinAddr: 0x100000FD8, symSize: 0x2C }
  - { offset: 0x5550, size: 0x8, addend: 0x0, symName: __ZNSt3__14sortB8ne180100IPNS_4pairIiiEENS_6__lessIvvEEEEvT_S6_T0_, symObjAddr: 0xAA4, symBinAddr: 0x100001360, symSize: 0x30 }
  - { offset: 0x55AA, size: 0x8, addend: 0x0, symName: __ZNSt3__111__sort_implB8ne180100INS_17_ClassicAlgPolicyEPNS_4pairIiiEENS_6__lessIvvEEEEvT0_S7_RT1_, symObjAddr: 0xAD4, symBinAddr: 0x100001390, symSize: 0x78 }
  - { offset: 0x560D, size: 0x8, addend: 0x0, symName: __ZNSt3__123__debug_randomize_rangeB8ne180100INS_17_ClassicAlgPolicyEPNS_4pairIiiEES4_EEvT0_T1_, symObjAddr: 0xB4C, symBinAddr: 0x100001408, symSize: 0x14 }
  - { offset: 0x565E, size: 0x8, addend: 0x0, symName: __ZNSt3__115__sort_dispatchB8ne180100INS_17_ClassicAlgPolicyEPNS_4pairIiiEENS_6__lessIvvEEEEvT0_S7_RT1_, symObjAddr: 0xB60, symBinAddr: 0x10000141C, symSize: 0x64 }
  - { offset: 0x56DC, size: 0x8, addend: 0x0, symName: __ZNSt3__113__unwrap_iterB8ne180100IPNS_4pairIiiEENS_18__unwrap_iter_implIS3_Lb1EEELi0EEEDTclsrT0_8__unwrapclsr3stdE7declvalIT_EEEES7_, symObjAddr: 0xBC4, symBinAddr: 0x100001480, symSize: 0x24 }
  - { offset: 0x5720, size: 0x8, addend: 0x0, symName: __ZNSt3__135__check_strict_weak_ordering_sortedB8ne180100IPNS_4pairIiiEENS_6__lessIvvEEEEvT_S6_RT0_, symObjAddr: 0xBE8, symBinAddr: 0x1000014A4, symSize: 0x18 }
  - { offset: 0x5776, size: 0x8, addend: 0x0, symName: __ZNSt3__17__log2iB8ne180100IlEET_S1_, symObjAddr: 0xC00, symBinAddr: 0x1000014BC, symSize: 0x54 }
  - { offset: 0x57AD, size: 0x8, addend: 0x0, symName: __ZNSt3__112__libcpp_clzB8ne180100Em, symObjAddr: 0x10A0, symBinAddr: 0x10000195C, symSize: 0x1C }
  - { offset: 0x5919, size: 0x8, addend: 0x0, symName: __ZNSt3__124__sort3_maybe_branchlessB8ne180100INS_17_ClassicAlgPolicyERNS_6__lessIvvEEPNS_4pairIiiEELi0EEEvT1_S8_S8_T0_, symObjAddr: 0x1124, symBinAddr: 0x1000019E0, symSize: 0x3C }
  - { offset: 0x598C, size: 0x8, addend: 0x0, symName: __ZNSt3__124__sort4_maybe_branchlessB8ne180100INS_17_ClassicAlgPolicyERNS_6__lessIvvEEPNS_4pairIiiEELi0EEEvT1_S8_S8_S8_T0_, symObjAddr: 0x1160, symBinAddr: 0x100001A1C, symSize: 0x44 }
  - { offset: 0x5A0D, size: 0x8, addend: 0x0, symName: __ZNSt3__124__sort5_maybe_branchlessB8ne180100INS_17_ClassicAlgPolicyERNS_6__lessIvvEEPNS_4pairIiiEELi0EEEvT1_S8_S8_S8_S8_T0_, symObjAddr: 0x11A4, symBinAddr: 0x100001A60, symSize: 0x4C }
  - { offset: 0x5AA3, size: 0x8, addend: 0x0, symName: __ZNSt3__116__insertion_sortB8ne180100INS_17_ClassicAlgPolicyERNS_6__lessIvvEEPNS_4pairIiiEEEEvT1_S8_T0_, symObjAddr: 0x11F0, symBinAddr: 0x100001AAC, symSize: 0x150 }
  - { offset: 0x5B6A, size: 0x8, addend: 0x0, symName: __ZNSt3__114__partial_sortB8ne180100INS_17_ClassicAlgPolicyERNS_6__lessIvvEEPNS_4pairIiiEES7_EET1_S8_S8_T2_RT0_, symObjAddr: 0x1460, symBinAddr: 0x100001D1C, symSize: 0x94 }
  - { offset: 0x5BF2, size: 0x8, addend: 0x0, symName: __ZNSt3__17__sort3B8ne180100INS_17_ClassicAlgPolicyERNS_6__lessIvvEEPNS_4pairIiiEEEEjT1_S8_S8_T0_, symObjAddr: 0x14F4, symBinAddr: 0x100001DB0, symSize: 0x144 }
  - { offset: 0x5C71, size: 0x8, addend: 0x0, symName: __ZNSt3__1ltB8ne180100IiiiiEEbRKNS_4pairIT_T0_EERKNS1_IT1_T2_EE, symObjAddr: 0x20E4, symBinAddr: 0x1000029A0, symSize: 0x98 }
  - { offset: 0x5CD2, size: 0x8, addend: 0x0, symName: __ZNSt3__19iter_swapB8ne180100IPNS_4pairIiiEES3_EEvT_T0_, symObjAddr: 0x217C, symBinAddr: 0x100002A38, symSize: 0x2C }
  - { offset: 0x5D1A, size: 0x8, addend: 0x0, symName: __ZNSt3__14swapB8ne180100IiiLi0EEEvRNS_4pairIT_T0_EES5_, symObjAddr: 0x21A8, symBinAddr: 0x100002A64, symSize: 0x2C }
  - { offset: 0x5D6B, size: 0x8, addend: 0x0, symName: __ZNSt3__14swapB8ne180100IiEENS_9enable_ifIXaasr21is_move_constructibleIT_EE5valuesr18is_move_assignableIS2_EE5valueEvE4typeERS2_S5_, symObjAddr: 0x2218, symBinAddr: 0x100002AD4, symSize: 0x3C }
  - { offset: 0x5DBC, size: 0x8, addend: 0x0, symName: __ZNSt3__17__sort4B8ne180100INS_17_ClassicAlgPolicyERNS_6__lessIvvEEPNS_4pairIiiEEEEvT1_S8_S8_S8_T0_, symObjAddr: 0x2254, symBinAddr: 0x100002B10, symSize: 0xB8 }
  - { offset: 0x5E37, size: 0x8, addend: 0x0, symName: __ZNSt3__17__sort5B8ne180100INS_17_ClassicAlgPolicyERNS_6__lessIvvEEPNS_4pairIiiEEEEvT1_S8_S8_S8_S8_T0_, symObjAddr: 0x230C, symBinAddr: 0x100002BC8, symSize: 0xE8 }
  - { offset: 0x5ECB, size: 0x8, addend: 0x0, symName: __ZNSt3__119__partial_sort_implB8ne180100INS_17_ClassicAlgPolicyERNS_6__lessIvvEEPNS_4pairIiiEES7_EET1_S8_S8_T2_OT0_, symObjAddr: 0x2438, symBinAddr: 0x100002CF4, symSize: 0x110 }
  - { offset: 0x5F61, size: 0x8, addend: 0x0, symName: __ZNSt3__111__make_heapB8ne180100INS_17_ClassicAlgPolicyERNS_6__lessIvvEEPNS_4pairIiiEEEEvT1_S8_OT0_, symObjAddr: 0x2548, symBinAddr: 0x100002E04, symSize: 0xB8 }
  - { offset: 0x6003, size: 0x8, addend: 0x0, symName: __ZNSt3__111__sort_heapB8ne180100INS_17_ClassicAlgPolicyERNS_6__lessIvvEEPNS_4pairIiiEEEEvT1_S8_OT0_, symObjAddr: 0x280C, symBinAddr: 0x1000030C8, symSize: 0xA8 }
  - { offset: 0x60A5, size: 0x8, addend: 0x0, symName: __ZNSt3__110__pop_heapB8ne180100INS_17_ClassicAlgPolicyENS_6__lessIvvEEPNS_4pairIiiEEEEvT1_S7_RT0_NS_15iterator_traitsIS7_E15difference_typeE, symObjAddr: 0x28B4, symBinAddr: 0x100003170, symSize: 0xF4 }
  - { offset: 0x6155, size: 0x8, addend: 0x0, symName: __ZNSt3__19__sift_upB8ne180100INS_17_ClassicAlgPolicyERNS_6__lessIvvEEPNS_4pairIiiEEEEvT1_S8_OT0_NS_15iterator_traitsIS8_E15difference_typeE, symObjAddr: 0x2AA8, symBinAddr: 0x100003364, symSize: 0x11C }
  - { offset: 0x6205, size: 0x8, addend: 0x0, symName: __ZNSt3__122__populate_left_bitsetB8ne180100IRNS_6__lessIvvEEPNS_4pairIiiEES5_EEvT0_T_RT1_Ry, symObjAddr: 0x2BC4, symBinAddr: 0x100003480, symSize: 0xA8 }
  - { offset: 0x62C0, size: 0x8, addend: 0x0, symName: __ZNSt3__123__populate_right_bitsetB8ne180100IRNS_6__lessIvvEEPNS_4pairIiiEES5_EEvT0_T_RT1_Ry, symObjAddr: 0x2C6C, symBinAddr: 0x100003528, symSize: 0xA4 }
  - { offset: 0x637B, size: 0x8, addend: 0x0, symName: __ZNSt3__117__swap_bitmap_posB8ne180100INS_17_ClassicAlgPolicyEPNS_4pairIiiEEEEvT0_S5_RyS6_, symObjAddr: 0x2D10, symBinAddr: 0x1000035CC, symSize: 0x100 }
  - { offset: 0x641C, size: 0x8, addend: 0x0, symName: __ZNSt3__133__bitset_partition_partial_blocksB8ne180100INS_17_ClassicAlgPolicyERNS_6__lessIvvEEPNS_4pairIiiEES6_EEvRT1_S9_T0_RT2_RySD_, symObjAddr: 0x2E10, symBinAddr: 0x1000036CC, symSize: 0x2E8 }
  - { offset: 0x659D, size: 0x8, addend: 0x0, symName: __ZNSt3__19make_pairB8ne180100IRPNS_4pairIiiEERbEENS1_INS_18__unwrap_ref_decayIT_E4typeENS6_IT0_E4typeEEEOS7_OSA_, symObjAddr: 0x32D8, symBinAddr: 0x100003B94, symSize: 0x38 }
  - { offset: 0x65EC, size: 0x8, addend: 0x0, symName: __ZNSt3__112__libcpp_ctzB8ne180100Ey, symObjAddr: 0x3310, symBinAddr: 0x100003BCC, symSize: 0x20 }
  - { offset: 0x6618, size: 0x8, addend: 0x0, symName: __ZNSt3__113__libcpp_blsrB8ne180100Ey, symObjAddr: 0x3330, symBinAddr: 0x100003BEC, symSize: 0x2C }
  - { offset: 0x6644, size: 0x8, addend: 0x0, symName: __ZNSt3__112__libcpp_clzB8ne180100Ey, symObjAddr: 0x3390, symBinAddr: 0x100003C4C, symSize: 0x1C }
  - { offset: 0x6797, size: 0x8, addend: 0x0, symName: __ZNSt3__112__to_addressB8ne180100INS_4pairIiiEEEEPT_S4_, symObjAddr: 0x3444, symBinAddr: 0x100003D00, symSize: 0x14 }
  - { offset: 0x7754, size: 0x8, addend: 0x0, symName: _main, symObjAddr: 0x0, symBinAddr: 0x1000008BC, symSize: 0x244 }
  - { offset: 0x7874, size: 0x8, addend: 0x0, symName: __ZNSt3__14pairIiiEC1B8ne180100IiRiLi0EEEOT_OT0_, symObjAddr: 0x2B8, symBinAddr: 0x100000B74, symSize: 0x3C }
  - { offset: 0x78D0, size: 0x8, addend: 0x0, symName: __ZNSt3__14pairIiiEaSB8ne180100EOS1_, symObjAddr: 0x2F4, symBinAddr: 0x100000BB0, symSize: 0x30 }
  - { offset: 0x799C, size: 0x8, addend: 0x0, symName: __ZNSt3__113basic_ostreamIcNS_11char_traitsIcEEElsB8ne180100EPFRS3_S4_E, symObjAddr: 0x350, symBinAddr: 0x100000C0C, symSize: 0x2C }
  - { offset: 0x79CE, size: 0x8, addend: 0x0, symName: __ZNSt3__14pairIiiEC2B8ne180100IiRiLi0EEEOT_OT0_, symObjAddr: 0x3D4, symBinAddr: 0x100000C90, symSize: 0x34 }
  - { offset: 0x7A2A, size: 0x8, addend: 0x0, symName: __ZNKSt3__18ios_base5widthB8ne180100Ev, symObjAddr: 0x408, symBinAddr: 0x100000CC4, symSize: 0x18 }
  - { offset: 0x7A50, size: 0x8, addend: 0x0, symName: __ZNSt3__114numeric_limitsIlE3maxB8ne180100Ev, symObjAddr: 0x420, symBinAddr: 0x100000CDC, symSize: 0x14 }
  - { offset: 0x7A63, size: 0x8, addend: 0x0, symName: __ZNSt3__123__libcpp_numeric_limitsIlLb1EE3maxB8ne180100Ev, symObjAddr: 0x6F8, symBinAddr: 0x100000FB4, symSize: 0x8 }
  - { offset: 0x7B18, size: 0x8, addend: 0x0, symName: __ZNKSt3__113basic_istreamIcNS_11char_traitsIcEEE6sentrycvbB8ne180100Ev, symObjAddr: 0x700, symBinAddr: 0x100000FBC, symSize: 0x1C }
  - { offset: 0x7B3C, size: 0x8, addend: 0x0, symName: __ZNKSt3__19basic_iosIcNS_11char_traitsIcEEE5rdbufB8ne180100Ev, symObjAddr: 0x748, symBinAddr: 0x100001004, symSize: 0x24 }
  - { offset: 0x7B62, size: 0x8, addend: 0x0, symName: __ZNSt3__115basic_streambufIcNS_11char_traitsIcEEE5sgetcB8ne180100Ev, symObjAddr: 0x76C, symBinAddr: 0x100001028, symSize: 0x70 }
  - { offset: 0x7B86, size: 0x8, addend: 0x0, symName: __ZNSt3__111char_traitsIcE11eq_int_typeB8ne180100Eii, symObjAddr: 0x7DC, symBinAddr: 0x100001098, symSize: 0x28 }
  - { offset: 0x7BB8, size: 0x8, addend: 0x0, symName: __ZNSt3__111char_traitsIcE3eofB8ne180100Ev, symObjAddr: 0x804, symBinAddr: 0x1000010C0, symSize: 0x8 }
  - { offset: 0x7BCB, size: 0x8, addend: 0x0, symName: __ZNSt3__111char_traitsIcE12to_char_typeB8ne180100Ei, symObjAddr: 0x80C, symBinAddr: 0x1000010C8, symSize: 0x18 }
  - { offset: 0x7C1B, size: 0x8, addend: 0x0, symName: __ZNKSt3__15ctypeIcE2isB8ne180100Ejc, symObjAddr: 0x824, symBinAddr: 0x1000010E0, symSize: 0x7C }
  - { offset: 0x7C5D, size: 0x8, addend: 0x0, symName: __ZNSt3__115basic_streambufIcNS_11char_traitsIcEEE6sbumpcB8ne180100Ev, symObjAddr: 0x8A0, symBinAddr: 0x10000115C, symSize: 0x78 }
  - { offset: 0x7C81, size: 0x8, addend: 0x0, symName: __ZNSt3__18ios_base5widthB8ne180100El, symObjAddr: 0x918, symBinAddr: 0x1000011D4, symSize: 0x2C }
  - { offset: 0x7CC5, size: 0x8, addend: 0x0, symName: __ZNSt3__18ios_base18__setstate_nothrowB8ne180100Ej, symObjAddr: 0x944, symBinAddr: 0x100001200, symSize: 0x64 }
  - { offset: 0x7CF8, size: 0x8, addend: 0x0, symName: __ZNKSt3__19basic_iosIcNS_11char_traitsIcEEE10exceptionsB8ne180100Ev, symObjAddr: 0x9A8, symBinAddr: 0x100001264, symSize: 0x24 }
  - { offset: 0x7D1C, size: 0x8, addend: 0x0, symName: __ZNSt3__19basic_iosIcNS_11char_traitsIcEEE8setstateB8ne180100Ej, symObjAddr: 0x9DC, symBinAddr: 0x100001298, symSize: 0x2C }
  - { offset: 0x7D4F, size: 0x8, addend: 0x0, symName: __ZNKSt3__18ios_base5rdbufB8ne180100Ev, symObjAddr: 0xA08, symBinAddr: 0x1000012C4, symSize: 0x18 }
  - { offset: 0x7D73, size: 0x8, addend: 0x0, symName: __ZNSt3__111char_traitsIcE11to_int_typeB8ne180100Ec, symObjAddr: 0xA20, symBinAddr: 0x1000012DC, symSize: 0x14 }
  - { offset: 0x7D96, size: 0x8, addend: 0x0, symName: __Z7isasciii, symObjAddr: 0xA34, symBinAddr: 0x1000012F0, symSize: 0x24 }
  - { offset: 0x7DC2, size: 0x8, addend: 0x0, symName: __ZNKSt3__18ios_base10exceptionsB8ne180100Ev, symObjAddr: 0xA58, symBinAddr: 0x100001314, symSize: 0x18 }
  - { offset: 0x7DE8, size: 0x8, addend: 0x0, symName: __ZNSt3__18ios_base8setstateB8ne180100Ej, symObjAddr: 0xA70, symBinAddr: 0x10000132C, symSize: 0x34 }
  - { offset: 0x7E27, size: 0x8, addend: 0x0, symName: __ZNKSt3__16__lessIvvEclB8ne180100INS_4pairIiiEES4_EEbRKT_RKT0_, symObjAddr: 0x10BC, symBinAddr: 0x100001978, symSize: 0x34 }
  - { offset: 0x7E7E, size: 0x8, addend: 0x0, symName: __ZNSt3__18_IterOpsINS_17_ClassicAlgPolicyEE9iter_swapB8ne180100IRPNS_4pairIiiEES7_EEvOT_OT0_, symObjAddr: 0x10F0, symBinAddr: 0x1000019AC, symSize: 0x34 }
  - { offset: 0x7EC5, size: 0x8, addend: 0x0, symName: __ZNSt3__18_IterOpsINS_17_ClassicAlgPolicyEE9iter_swapB8ne180100IRPNS_4pairIiiEES6_EEvOT_OT0_, symObjAddr: 0x1638, symBinAddr: 0x100001EF4, symSize: 0x34 }
  - { offset: 0x7F07, size: 0x8, addend: 0x0, symName: __ZNSt3__14pairIiiE4swapB8ne180100ERS1_, symObjAddr: 0x21D4, symBinAddr: 0x100002A90, symSize: 0x44 }
  - { offset: 0x7F3F, size: 0x8, addend: 0x0, symName: __ZNSt3__18_IterOpsINS_17_ClassicAlgPolicyEE11__iter_moveB8ne180100IRPNS_4pairIiiEELi0EEEDTclsr3stdE4movedeclsr3stdE7declvalIRT_EEEEOS8_, symObjAddr: 0x23F4, symBinAddr: 0x100002CB0, symSize: 0x28 }
  - { offset: 0x7F70, size: 0x8, addend: 0x0, symName: __ZNSt3__18_IterOpsINS_17_ClassicAlgPolicyEE25__validate_iter_referenceB8ne180100IRPNS_4pairIiiEEEEvv, symObjAddr: 0x241C, symBinAddr: 0x100002CD8, symSize: 0x4 }
  - { offset: 0x7F8D, size: 0x8, addend: 0x0, symName: __ZNSt3__18_IterOpsINS_17_ClassicAlgPolicyEE4nextB8ne180100IPNS_4pairIiiEEEET_S7_S7_, symObjAddr: 0x2420, symBinAddr: 0x100002CDC, symSize: 0x18 }
  - { offset: 0x7FC2, size: 0x8, addend: 0x0, symName: __ZNSt3__18_IterOpsINS_17_ClassicAlgPolicyEE9iter_swapB8ne180100IPNS_4pairIiiEES6_EEvOT_OT0_, symObjAddr: 0x335C, symBinAddr: 0x100003C18, symSize: 0x34 }
  - { offset: 0x801D, size: 0x8, addend: 0x0, symName: __ZNSt3__14pairIPNS0_IiiEEbEC1B8ne180100IRS2_RbLi0EEEOT_OT0_, symObjAddr: 0x33AC, symBinAddr: 0x100003C68, symSize: 0x3C }
  - { offset: 0x8079, size: 0x8, addend: 0x0, symName: __ZNSt3__14pairIPNS0_IiiEEbEC2B8ne180100IRS2_RbLi0EEEOT_OT0_, symObjAddr: 0x33E8, symBinAddr: 0x100003CA4, symSize: 0x38 }
  - { offset: 0x80D5, size: 0x8, addend: 0x0, symName: __ZNSt3__118__unwrap_iter_implIPNS_4pairIiiEELb1EE8__unwrapB8ne180100ES3_, symObjAddr: 0x3420, symBinAddr: 0x100003CDC, symSize: 0x24 }
  - { offset: 0x80F7, size: 0x8, addend: 0x0, symName: __ZNKSt3__19basic_iosIcNS_11char_traitsIcEEE5widenB8ne180100Ec, symObjAddr: 0x3458, symBinAddr: 0x100003D14, symSize: 0x84 }
  - { offset: 0x812C, size: 0x8, addend: 0x0, symName: __ZNKSt3__15ctypeIcE5widenB8ne180100Ec, symObjAddr: 0x34DC, symBinAddr: 0x100003D98, symSize: 0x38 }
...
